; Function Attrs: mustprogress uwtable
define hidden void @_ZN4cvc58internal6theory8booleans22ProofCircuitPropagator3NotEbNS0_12NodeTemplateILb1EEE(ptr dead_on_unwind noalias writable sret(%"class.std::shared_ptr") align 8 %0, ptr noundef nonnull readonly align 8 captures(none) dereferenceable(16) %1, i1 noundef zeroext %2, ptr noundef readonly captures(none) %3) local_unnamed_addr #5 align 2 personality ptr @__gxx_personality_v0 {
  %5 = alloca %"class.std::shared_ptr", align 8
  %6 = alloca %"class.cvc5::internal::NodeTemplate", align 8
  %7 = getelementptr inbounds nuw i8, ptr %1, i64 8
  %8 = load ptr, ptr %7, align 8, !tbaa !10
  %9 = icmp eq ptr %8, null
  br i1 %9, label %10, label %11

10:                                               ; preds = %4
  tail call void @llvm.memset.p0.i64(ptr noundef nonnull align 8 dereferenceable(16) %0, i8 0, i64 16, i1 false)
  br label %98

11:                                               ; preds = %4
  call void @llvm.lifetime.start.p0(i64 16, ptr nonnull %5) #22
  br i1 %2, label %12, label %40

12:                                               ; preds = %11
  tail call void @llvm.experimental.noalias.scope.decl(metadata !88)
  %13 = load ptr, ptr %3, align 8, !tbaa !11, !noalias !88
  %14 = getelementptr inbounds nuw i8, ptr %13, i64 8
  %15 = load i64, ptr %14, align 8, !noalias !88
  %16 = trunc i64 %15 to i32
  %17 = and i32 %16, 1023
  %18 = icmp eq i32 %17, 1023
  %19 = select i1 %18, i32 -1, i32 %17
  %20 = tail call noundef i32 @_ZN4cvc58internal4kind10metaKindOfENS1_6Kind_tE(i32 noundef %19), !noalias !88
  %21 = icmp eq i32 %20, 2
  %22 = getelementptr inbounds nuw i8, ptr %13, i64 24
  %23 = zext i1 %21 to i64
  %24 = getelementptr inbounds nuw [0 x ptr], ptr %22, i64 0, i64 %23
  %25 = load ptr, ptr %24, align 8, !tbaa !70, !noalias !88
  store ptr %25, ptr %6, align 8, !tbaa !11, !alias.scope !88
  %26 = load i64, ptr %25, align 8, !noalias !88
  %27 = lshr i64 %26, 40
  %28 = trunc nuw nsw i64 %27 to i32
  %29 = and i32 %28, 1048575
  %30 = icmp samesign ult i32 %29, 1048574
  br i1 %30, label %31, label %36, !prof !14

31:                                               ; preds = %12
  %32 = add i64 %26, 1099511627776
  %33 = and i64 %32, 1152920405095219200
  %34 = and i64 %26, -1152920405095219201
  %35 = or disjoint i64 %33, %34
  store i64 %35, ptr %25, align 8, !noalias !88
  br label %_ZNK4cvc58internal12NodeTemplateILb1EEixEi.exit

36:                                               ; preds = %12
  %37 = icmp eq i32 %29, 1048574
  br i1 %37, label %38, label %_ZNK4cvc58internal12NodeTemplateILb1EEixEi.exit, !prof !15

38:                                               ; preds = %36
  %39 = or i64 %26, 1152920405095219200
  store i64 %39, ptr %25, align 8, !noalias !88
  tail call void @_ZN4cvc58internal4expr9NodeValue20markRefCountMaxedOutEv(ptr noundef nonnull align 8 dereferenceable(24) %25), !noalias !88
  br label %_ZNK4cvc58internal12NodeTemplateILb1EEixEi.exit

40:                                               ; preds = %11
  %41 = load ptr, ptr %3, align 8, !tbaa !11
  store ptr %41, ptr %6, align 8, !tbaa !11
  %42 = load i64, ptr %41, align 8
  %43 = lshr i64 %42, 40
  %44 = trunc nuw nsw i64 %43 to i32
  %45 = and i32 %44, 1048575
  %46 = icmp samesign ult i32 %45, 1048574
  br i1 %46, label %47, label %52, !prof !14

47:                                               ; preds = %40
  %48 = add i64 %42, 1099511627776
  %49 = and i64 %48, 1152920405095219200
  %50 = and i64 %42, -1152920405095219201
  %51 = or disjoint i64 %49, %50
  store i64 %51, ptr %41, align 8
  br label %_ZNK4cvc58internal12NodeTemplateILb1EEixEi.exit

52:                                               ; preds = %40
  %53 = icmp eq i32 %45, 1048574
  br i1 %53, label %54, label %_ZNK4cvc58internal12NodeTemplateILb1EEixEi.exit, !prof !15

54:                                               ; preds = %52
  %55 = or i64 %42, 1152920405095219200
  store i64 %55, ptr %41, align 8
  tail call void @_ZN4cvc58internal4expr9NodeValue20markRefCountMaxedOutEv(ptr noundef nonnull align 8 dereferenceable(24) %41)
  br label %_ZNK4cvc58internal12NodeTemplateILb1EEixEi.exit

_ZNK4cvc58internal12NodeTemplateILb1EEixEi.exit:  ; preds = %54, %52, %47, %38, %36, %31
  invoke void @_ZN4cvc58internal6theory8booleans22ProofCircuitPropagator6assumeENS0_12NodeTemplateILb1EEE(ptr dead_on_unwind nonnull writable sret(%"class.std::shared_ptr") align 8 %5, ptr noundef nonnull align 8 dereferenceable(16) %1, ptr noundef nonnull %6)
          to label %56 unwind label %94

56:                                               ; preds = %_ZNK4cvc58internal12NodeTemplateILb1EEixEi.exit
  invoke void @_ZN4cvc58internal6theory8booleans22ProofCircuitPropagator5mkNotERKSt10shared_ptrINS0_9ProofNodeEE(ptr dead_on_unwind writable sret(%"class.std::shared_ptr") align 8 %0, ptr noundef nonnull align 8 dereferenceable(16) %1, ptr noundef nonnull align 8 dereferenceable(16) %5)
          to label %57 unwind label %96

57:                                               ; preds = %56
  %58 = getelementptr inbounds nuw i8, ptr %5, i64 8
  %59 = load ptr, ptr %58, align 8, !tbaa !33
  %.not.i.i = icmp eq ptr %59, null
  br i1 %.not.i.i, label %_ZNSt12__shared_ptrIN4cvc58internal9ProofNodeELN9__gnu_cxx12_Lock_policyE2EED2Ev.exit, label %60

60:                                               ; preds = %57
  %61 = getelementptr inbounds nuw i8, ptr %59, i64 8
  %62 = load atomic i64, ptr %61 acquire, align 8
  %63 = icmp eq i64 %62, 4294967297
  %64 = trunc i64 %62 to i32
  br i1 %63, label %65, label %73

65:                                               ; preds = %60
  store i32 0, ptr %61, align 8, !tbaa !49
  %66 = getelementptr inbounds nuw i8, ptr %59, i64 12
  store i32 0, ptr %66, align 4, !tbaa !51
  %67 = load ptr, ptr %59, align 8, !tbaa !52
  %68 = getelementptr inbounds nuw i8, ptr %67, i64 16
  %69 = load ptr, ptr %68, align 8
  call void %69(ptr noundef nonnull align 8 dereferenceable(16) %59) #22
  %70 = load ptr, ptr %59, align 8, !tbaa !52
  %71 = getelementptr inbounds nuw i8, ptr %70, i64 24
  %72 = load ptr, ptr %71, align 8
  call void %72(ptr noundef nonnull align 8 dereferenceable(16) %59) #22
  br label %_ZNSt12__shared_ptrIN4cvc58internal9ProofNodeELN9__gnu_cxx12_Lock_policyE2EED2Ev.exit

73:                                               ; preds = %60
  %74 = load i8, ptr @__libc_single_threaded, align 1, !tbaa !34
  %.not.i.i.i = icmp eq i8 %74, 0
  br i1 %.not.i.i.i, label %77, label %75

75:                                               ; preds = %73
  %76 = add nsw i32 %64, -1
  store i32 %76, ptr %61, align 4, !tbaa !35
  br label %_ZN9__gnu_cxx27__exchange_and_add_dispatchEPii.exit.i.i.i

77:                                               ; preds = %73
  %78 = atomicrmw volatile add ptr %61, i32 -1 acq_rel, align 4
  br label %_ZN9__gnu_cxx27__exchange_and_add_dispatchEPii.exit.i.i.i

_ZN9__gnu_cxx27__exchange_and_add_dispatchEPii.exit.i.i.i: ; preds = %77, %75
  %.0.i.i.i.i = phi i32 [ %64, %75 ], [ %78, %77 ]
  %79 = icmp eq i32 %.0.i.i.i.i, 1
  br i1 %79, label %80, label %_ZNSt12__shared_ptrIN4cvc58internal9ProofNodeELN9__gnu_cxx12_Lock_policyE2EED2Ev.exit, !prof !15

80:                                               ; preds = %_ZN9__gnu_cxx27__exchange_and_add_dispatchEPii.exit.i.i.i
  call void @_ZNSt16_Sp_counted_baseILN9__gnu_cxx12_Lock_policyE2EE24_M_release_last_use_coldEv(ptr noundef nonnull align 8 dereferenceable(16) %59) #22
  br label %_ZNSt12__shared_ptrIN4cvc58internal9ProofNodeELN9__gnu_cxx12_Lock_policyE2EED2Ev.exit

_ZNSt12__shared_ptrIN4cvc58internal9ProofNodeELN9__gnu_cxx12_Lock_policyE2EED2Ev.exit: ; preds = %57, %65, %_ZN9__gnu_cxx27__exchange_and_add_dispatchEPii.exit.i.i.i, %80
  %81 = load ptr, ptr %6, align 8, !tbaa !11
  %82 = load i64, ptr %81, align 8
  %83 = and i64 %82, 1152920405095219200
  %.not.i.i14 = icmp eq i64 %83, 1152920405095219200
  br i1 %.not.i.i14, label %_ZN4cvc58internal12NodeTemplateILb1EED2Ev.exit, label %84, !prof !15

84:                                               ; preds = %_ZNSt12__shared_ptrIN4cvc58internal9ProofNodeELN9__gnu_cxx12_Lock_policyE2EED2Ev.exit
  %85 = add i64 %82, 1152920405095219200
  %86 = and i64 %85, 1152920405095219200
  %87 = and i64 %82, -1152920405095219201
  %88 = or disjoint i64 %86, %87
  store i64 %88, ptr %81, align 8
  %89 = icmp eq i64 %86, 0
  br i1 %89, label %90, label %_ZN4cvc58internal12NodeTemplateILb1EED2Ev.exit, !prof !15

90:                                               ; preds = %84
  invoke void @_ZN4cvc58internal4expr9NodeValue15markForDeletionEv(ptr noundef nonnull align 8 dereferenceable(24) %81)
          to label %_ZN4cvc58internal12NodeTemplateILb1EED2Ev.exit unwind label %91

91:                                               ; preds = %90
  %92 = landingpad { ptr, i32 }
          catch ptr null
  %93 = extractvalue { ptr, i32 } %92, 0
  call void @__clang_call_terminate(ptr %93) #21
  unreachable

_ZN4cvc58internal12NodeTemplateILb1EED2Ev.exit:   ; preds = %_ZNSt12__shared_ptrIN4cvc58internal9ProofNodeELN9__gnu_cxx12_Lock_policyE2EED2Ev.exit, %84, %90
  call void @llvm.lifetime.end.p0(i64 16, ptr nonnull %5) #22
  br label %98

94:                                               ; preds = %_ZNK4cvc58internal12NodeTemplateILb1EEixEi.exit
  %95 = landingpad { ptr, i32 }
          cleanup
  br label %.thread

96:                                               ; preds = %56
  %97 = landingpad { ptr, i32 }
          cleanup
  call void @_ZNSt12__shared_ptrIN4cvc58internal9ProofNodeELN9__gnu_cxx12_Lock_policyE2EED2Ev(ptr noundef nonnull align 8 dereferenceable(16) %5) #22
  br label %.thread

.thread:                                          ; preds = %96, %94
  %.pn = phi { ptr, i32 } [ %97, %96 ], [ %95, %94 ]
  call void @_ZN4cvc58internal12NodeTemplateILb1EED2Ev(ptr noundef nonnull align 8 dereferenceable(8) %6) #22
  call void @llvm.lifetime.end.p0(i64 16, ptr nonnull %5) #22
  resume { ptr, i32 } %.pn

98:                                               ; preds = %_ZN4cvc58internal12NodeTemplateILb1EED2Ev.exit, %10
  ret void
}